; Function Attrs: nounwind uwtable
define void @Lms_GiaPrintSubgraph_rec(ptr noundef %0, ptr noundef %1) local_unnamed_addr #0 {
  %3 = load i64, ptr %1, align 4
  %4 = and i64 %3, 1073741824
  %.not = icmp eq i64 %4, 0
  %5 = and i64 %3, 2684354559
  %narrow.i.not = icmp eq i64 %5, 2684354559
  %or.cond = or i1 %.not, %narrow.i.not
  br i1 %or.cond, label %common.ret10, label %6

common.ret10:                                     ; preds = %2, %6
  ret void

6:                                                ; preds = %2
  %7 = and i64 %3, -1073741825
  store i64 %7, ptr %1, align 4
  %8 = and i64 %3, 536870911
  %9 = sub nsw i64 0, %8
  %10 = getelementptr inbounds %struct.Gia_Obj_t_, ptr %1, i64 %9
  tail call void @Lms_GiaPrintSubgraph_rec(ptr noundef %0, ptr noundef nonnull %10)
  %11 = load i64, ptr %1, align 4
  %12 = lshr i64 %11, 32
  %13 = and i64 %12, 536870911
  %14 = sub nsw i64 0, %13
  %15 = getelementptr inbounds %struct.Gia_Obj_t_, ptr %1, i64 %14
  tail call void @Lms_GiaPrintSubgraph_rec(ptr noundef %0, ptr noundef nonnull %15)
  tail call void @Gia_ObjPrint(ptr noundef %0, ptr noundef nonnull %1) #25
  br label %common.ret10
}